target datalayout = "e-m:e-p270:32:32-p271:32:32-p272:64:64-i64:64-i128:128-f80:128-n8:16:32:64-S128"
target triple = "x86_64-pc-linux-gnu"

%struct.Vec_Int_t_ = type { i32, i32, ptr }
%struct.Vec_Str_t_ = type { i32, i32, ptr }
%struct.Vec_Ptr_t_ = type { i32, i32, ptr }
%struct.Cba_Ntk_t_ = type { ptr, i32, i32, i32, i8, %struct.Vec_Int_t_, %struct.Vec_Int_t_, %struct.Vec_Int_t_, %struct.Vec_Int_t_, %struct.Vec_Str_t_, %struct.Vec_Int_t_, %struct.Vec_Int_t_, %struct.Vec_Int_t_, %struct.Vec_Int_t_, %struct.Vec_Int_t_, %struct.Vec_Int_t_, %struct.Vec_Int_t_, %struct.Vec_Int_t_, %struct.Vec_Int_t_, %struct.Vec_Int_t_, %struct.Vec_Int_t_, %struct.Vec_Int_t_, %struct.Vec_Int_t_, %struct.Vec_Int_t_, %struct.Vec_Int_t_, %struct.Vec_Int_t_, %struct.Vec_Int_t_, %struct.Vec_Int_t_, ptr, %struct.Vec_Int_t_, %struct.Vec_Int_t_ }
%struct.Cba_Man_t_ = type { ptr, ptr, ptr, ptr, ptr, ptr, %struct.Vec_Int_t_, %struct.Vec_Int_t_, %struct.Vec_Int_t_, %struct.Vec_Int_t_, [90 x ptr], [90 x i32], [90 x i32], i32, %struct.Vec_Ptr_t_, i32, %struct.Vec_Str_t_, %struct.Vec_Str_t_, ptr }

@.str.69 = private unnamed_addr constant [12 x i8] c"  // %s(%d)\00", align 1

; Function Attrs: inlinehint nounwind uwtable
define internal ptr @Cba_ManStr(ptr noundef %0, i32 noundef %1) #3 {
  %3 = alloca ptr, align 8
  %4 = alloca i32, align 4
  store ptr %0, ptr %3, align 8, !tbaa !84
  store i32 %1, ptr %4, align 4, !tbaa !12
  %5 = load ptr, ptr %3, align 8, !tbaa !84
  %6 = getelementptr inbounds nuw %struct.Cba_Man_t_, ptr %5, i32 0, i32 2
  %7 = load ptr, ptr %6, align 8, !tbaa !49
  %8 = load i32, ptr %4, align 4, !tbaa !12
  %9 = call ptr @Abc_NamStr(ptr noundef %7, i32 noundef %8)
  ret ptr %9
}

; Function Attrs: inlinehint nounwind uwtable
define internal ptr @Cba_NtkStr(ptr noundef %0, i32 noundef %1) #3 {
  %3 = alloca ptr, align 8
  %4 = alloca i32, align 4
  store ptr %0, ptr %3, align 8, !tbaa !43
  store i32 %1, ptr %4, align 4, !tbaa !12
  %5 = load ptr, ptr %3, align 8, !tbaa !43
  %6 = getelementptr inbounds nuw %struct.Cba_Ntk_t_, ptr %5, i32 0, i32 0
  %7 = load ptr, ptr %6, align 8, !tbaa !46
  %8 = load i32, ptr %4, align 4, !tbaa !12
  %9 = call ptr @Cba_ManStr(ptr noundef %7, i32 noundef %8)
  ret ptr %9
}

; Function Attrs: nounwind uwtable
define i32 @Cba_ManWriteLineFile(ptr noundef %0, i32 noundef %1, i32 noundef %2, i32 noundef %3) #0 {
  %5 = alloca i32, align 4
  %6 = alloca ptr, align 8
  %7 = alloca i32, align 4
  %8 = alloca i32, align 4
  %9 = alloca i32, align 4
  %10 = alloca ptr, align 8
  %11 = alloca i32, align 4
  %12 = alloca i32, align 4
  %13 = alloca i32, align 4
  store ptr %0, ptr %6, align 8, !tbaa !43
  store i32 %1, ptr %7, align 4, !tbaa !12
  store i32 %2, ptr %8, align 4, !tbaa !12
  store i32 %3, ptr %9, align 4, !tbaa !12
  call void @llvm.lifetime.start.p0(i64 8, ptr %10) #12
  %14 = load ptr, ptr %6, align 8, !tbaa !43
  %15 = getelementptr inbounds nuw %struct.Cba_Ntk_t_, ptr %14, i32 0, i32 0
  %16 = load ptr, ptr %15, align 8, !tbaa !46
  %17 = getelementptr inbounds nuw %struct.Cba_Man_t_, ptr %16, i32 0, i32 16
  store ptr %17, ptr %10, align 8, !tbaa !23
  call void @llvm.lifetime.start.p0(i64 4, ptr %11) #12
  store i32 0, ptr %11, align 4, !tbaa !12
  call void @llvm.lifetime.start.p0(i64 4, ptr %12) #12
  store i32 0, ptr %12, align 4, !tbaa !12
  %18 = load i32, ptr %8, align 4, !tbaa !12
  %19 = icmp ne i32 %18, 0
  br i1 %19, label %20, label %37

20:                                               ; preds = %4
  %21 = load ptr, ptr %6, align 8, !tbaa !43
  %22 = load i32, ptr %7, align 4, !tbaa !12
  %23 = load i32, ptr %8, align 4, !tbaa !12
  %24 = call i32 @Cba_ObjAttrValue(ptr noundef %21, i32 noundef %22, i32 noundef %23)
  store i32 %24, ptr %11, align 4, !tbaa !12
  %25 = icmp ne i32 %24, 0
  br i1 %25, label %26, label %37

26:                                               ; preds = %20
  %27 = load ptr, ptr %6, align 8, !tbaa !43
  %28 = load i32, ptr %7, align 4, !tbaa !12
  %29 = load i32, ptr %9, align 4, !tbaa !12
  %30 = call i32 @Cba_ObjAttrValue(ptr noundef %27, i32 noundef %28, i32 noundef %29)
  store i32 %30, ptr %12, align 4, !tbaa !12
  %31 = load ptr, ptr %10, align 8, !tbaa !23
  %32 = load ptr, ptr %6, align 8, !tbaa !43
  %33 = load i32, ptr %11, align 4, !tbaa !12
  %34 = call ptr @Cba_NtkStr(ptr noundef %32, i32 noundef %33)
  %35 = load i32, ptr %12, align 4, !tbaa !12
  %36 = call ptr (ptr, ptr, ...) @Vec_StrPrintF(ptr noundef %31, ptr noundef @.str.69, ptr noundef %34, i32 noundef %35)
  store i32 1, ptr %5, align 4
  store i32 1, ptr %13, align 4
  br label %38

37:                                               ; preds = %20, %4
  store i32 0, ptr %5, align 4
  store i32 1, ptr %13, align 4
  br label %38

38:                                               ; preds = %37, %26
  call void @llvm.lifetime.end.p0(i64 4, ptr %12) #12
  call void @llvm.lifetime.end.p0(i64 4, ptr %11) #12
  call void @llvm.lifetime.end.p0(i64 8, ptr %10) #12
  %39 = load i32, ptr %5, align 4
  ret i32 %39
}