; Function Attrs: nounwind uwtable
define range(i32 0, 2) i32 @Cba_ManWriteLineFile(ptr noundef captures(none) %0, i32 noundef %1, i32 noundef %2, i32 noundef %3) local_unnamed_addr #2 {
  %5 = load ptr, ptr %0, align 8, !tbaa !49
  %6 = getelementptr inbounds nuw i8, ptr %5, i64 1584
  %.not = icmp eq i32 %2, 0
  br i1 %.not, label %14, label %7

7:                                                ; preds = %4
  %8 = tail call fastcc i32 @Cba_ObjAttrValue(ptr noundef nonnull %0, i32 noundef %1, i32 noundef %2)
  %.not14 = icmp eq i32 %8, 0
  br i1 %.not14, label %14, label %9

9:                                                ; preds = %7
  %10 = tail call fastcc i32 @Cba_ObjAttrValue(ptr noundef nonnull %0, i32 noundef %1, i32 noundef %3)
  %.val = load ptr, ptr %0, align 8, !tbaa !49
  %11 = getelementptr i8, ptr %.val, i64 16
  %.val.val = load ptr, ptr %11, align 8, !tbaa !53
  %12 = tail call ptr @Abc_NamStr(ptr noundef %.val.val, i32 noundef %8) #16
  %13 = tail call ptr (ptr, ptr, ...) @Vec_StrPrintF(ptr noundef nonnull %6, ptr noundef nonnull @.str.69, ptr noundef %12, i32 noundef %10)
  br label %14

14:                                               ; preds = %4, %7, %9
  %.0 = phi i32 [ 1, %9 ], [ 0, %7 ], [ 0, %4 ]
  ret i32 %.0
}